target datalayout = "e-m:e-p270:32:32-p271:32:32-p272:64:64-i64:64-i128:128-f80:128-n8:16:32:64-S128"
target triple = "x86_64-pc-linux-gnu"

%struct.AVCodecContext = type { ptr, i32, i32, ptr, i32, i32, ptr, ptr, ptr, i64, i32, i32, ptr, i32, %struct.AVRational, %struct.AVRational, %struct.AVRational, i32, i32, i32, i32, i32, %struct.AVRational, i32, i32, i32, i32, i32, i32, i32, i32, i32, i32, i32, ptr, ptr, i32, float, float, float, float, float, float, float, float, float, i32, i32, i32, i32, i32, i32, i32, i32, i32, i32, i32, i32, ptr, ptr, ptr, i32, i32, i32, i32, i32, i32, i32, i32, i32, i32, %struct.AVChannelLayout, i32, i32, i32, i32, i32, i32, i32, i32, ptr, i32, i32, i32, float, float, i32, i32, i32, i32, i32, ptr, i64, i64, float, float, i32, i32, ptr, ptr, i32, i32, i32, i32, i32, ptr, ptr, ptr, ptr, i32, i32, [8 x i64], i32, i32, i32, i32, i32, i32, i32, ptr, ptr, i32, i32, i32, i32, i32, i32, i32, i32, i32, i32, ptr, ptr, i32, i32, ptr, ptr, ptr, ptr, i32, i32, i64, i32, i32, i64, ptr, i64, ptr, i32, ptr, i32 }
%struct.AVRational = type { i32, i32 }
%struct.AVChannelLayout = type { i32, i32, %union.anon.0, ptr }
%union.anon.0 = type { i64 }
%struct.CDToonsContext = type { ptr, i16, [256 x i32], [1200 x %struct.CDToonsSprite] }
%struct.CDToonsSprite = type { i16, i16, i16, i16, i32, i32, ptr, i32 }

; Function Attrs: cold nounwind optsize uwtable
define internal i32 @cdtoons_decode_end(ptr noundef %0) #0 {
  %2 = alloca ptr, align 8
  %3 = alloca ptr, align 8
  %4 = alloca i32, align 4
  store ptr %0, ptr %2, align 8, !tbaa !4
  call void @llvm.lifetime.start.p0(i64 8, ptr %3) #8
  %5 = load ptr, ptr %2, align 8, !tbaa !4
  %6 = getelementptr inbounds nuw %struct.AVCodecContext, ptr %5, i32 0, i32 6
  %7 = load ptr, ptr %6, align 8, !tbaa !9
  store ptr %7, ptr %3, align 8, !tbaa !29
  call void @llvm.lifetime.start.p0(i64 4, ptr %4) #8
  store i32 0, ptr %4, align 4, !tbaa !45
  br label %8

8:                                                ; preds = %25, %1
  %9 = load i32, ptr %4, align 4, !tbaa !45
  %10 = icmp slt i32 %9, 1200
  br i1 %10, label %12, label %11

11:                                               ; preds = %8
  call void @llvm.lifetime.end.p0(i64 4, ptr %4) #8
  br label %28

12:                                               ; preds = %8
  %13 = load ptr, ptr %3, align 8, !tbaa !29
  %14 = getelementptr inbounds nuw %struct.CDToonsContext, ptr %13, i32 0, i32 3
  %15 = load i32, ptr %4, align 4, !tbaa !45
  %16 = sext i32 %15 to i64
  %17 = getelementptr inbounds [1200 x %struct.CDToonsSprite], ptr %14, i64 0, i64 %16
  %18 = getelementptr inbounds nuw %struct.CDToonsSprite, ptr %17, i32 0, i32 6
  call void @av_freep(ptr noundef %18)
  %19 = load ptr, ptr %3, align 8, !tbaa !29
  %20 = getelementptr inbounds nuw %struct.CDToonsContext, ptr %19, i32 0, i32 3
  %21 = load i32, ptr %4, align 4, !tbaa !45
  %22 = sext i32 %21 to i64
  %23 = getelementptr inbounds [1200 x %struct.CDToonsSprite], ptr %20, i64 0, i64 %22
  %24 = getelementptr inbounds nuw %struct.CDToonsSprite, ptr %23, i32 0, i32 7
  store i32 0, ptr %24, align 8, !tbaa !48
  br label %25

25:                                               ; preds = %12
  %26 = load i32, ptr %4, align 4, !tbaa !45
  %27 = add nsw i32 %26, 1
  store i32 %27, ptr %4, align 4, !tbaa !45
  br label %8, !llvm.loop !64

28:                                               ; preds = %11
  %29 = load ptr, ptr %3, align 8, !tbaa !29
  %30 = getelementptr inbounds nuw %struct.CDToonsContext, ptr %29, i32 0, i32 0
  call void @av_frame_free(ptr noundef %30)
  call void @llvm.lifetime.end.p0(i64 8, ptr %3) #8
  ret i32 0
}