; Function Attrs: cold nounwind optsize uwtable
define internal noundef i32 @cdtoons_decode_end(ptr noundef readonly captures(none) %0) #0 {
  %2 = getelementptr inbounds nuw i8, ptr %0, i64 32
  %3 = load ptr, ptr %2, align 8, !tbaa !4
  %4 = getelementptr inbounds nuw i8, ptr %3, i64 1040
  br label %6

5:                                                ; preds = %6
  tail call void @av_frame_free(ptr noundef nonnull %3) #8
  ret i32 0

6:                                                ; preds = %1, %6
  %indvars.iv = phi i64 [ 0, %1 ], [ %indvars.iv.next, %6 ]
  %7 = getelementptr inbounds nuw [1200 x %struct.CDToonsSprite], ptr %4, i64 0, i64 %indvars.iv
  %8 = getelementptr inbounds nuw i8, ptr %7, i64 16
  tail call void @av_freep(ptr noundef nonnull %8) #8
  %9 = getelementptr inbounds nuw i8, ptr %7, i64 24
  store i32 0, ptr %9, align 8, !tbaa !37
  %indvars.iv.next = add nuw nsw i64 %indvars.iv, 1
  %exitcond.not = icmp eq i64 %indvars.iv.next, 1200
  br i1 %exitcond.not, label %5, label %6, !llvm.loop !55
}